target datalayout = "e-m:e-p270:32:32-p271:32:32-p272:64:64-i64:64-i128:128-f80:128-n8:16:32:64-S128"
target triple = "x86_64-pc-linux-gnu"

%struct._GtkTreeIter = type { i32, ptr, ptr, ptr }

; Function Attrs: nounwind uwtable
define internal void @_update_attached_count(i32 noundef %0, ptr noundef %1, i32 noundef %2) #0 {
  %4 = alloca i32, align 4
  %5 = alloca ptr, align 8
  %6 = alloca i32, align 4
  %7 = alloca i32, align 4
  %8 = alloca ptr, align 8
  %9 = alloca ptr, align 8
  %10 = alloca %struct._GtkTreeIter, align 8
  store i32 %0, ptr %4, align 4, !tbaa !31
  store ptr %1, ptr %5, align 8, !tbaa !35
  store i32 %2, ptr %6, align 4, !tbaa !31
  call void @llvm.lifetime.start.p0(i64 4, ptr %7) #11
  %11 = load i32, ptr %4, align 4, !tbaa !31
  %12 = call i32 @dt_tag_images_count(i32 noundef %11)
  store i32 %12, ptr %7, align 4, !tbaa !31
  call void @llvm.lifetime.start.p0(i64 8, ptr %8) #11
  %13 = load ptr, ptr %5, align 8, !tbaa !35
  %14 = call ptr @gtk_tree_view_get_model(ptr noundef %13)
  store ptr %14, ptr %8, align 8, !tbaa !36
  call void @llvm.lifetime.start.p0(i64 8, ptr %9) #11
  %15 = load ptr, ptr %8, align 8, !tbaa !36
  %16 = call i64 @gtk_tree_model_filter_get_type() #12
  %17 = call ptr @g_type_check_instance_cast(ptr noundef %15, i64 noundef %16)
  %18 = call ptr @gtk_tree_model_filter_get_model(ptr noundef %17)
  store ptr %18, ptr %9, align 8, !tbaa !36
  call void @llvm.lifetime.start.p0(i64 32, ptr %10) #11
  %19 = load ptr, ptr %9, align 8, !tbaa !36
  %20 = call i32 @gtk_tree_model_get_iter_first(ptr noundef %19, ptr noundef %10)
  %21 = icmp ne i32 %20, 0
  br i1 %21, label %22, label %45

22:                                               ; preds = %3
  %23 = load ptr, ptr %9, align 8, !tbaa !36
  %24 = load i32, ptr %4, align 4, !tbaa !31
  %25 = call i32 @_find_tag_iter_tagid(ptr noundef %23, ptr noundef %10, i32 noundef %24)
  %26 = icmp ne i32 %25, 0
  br i1 %26, label %27, label %44

27:                                               ; preds = %22
  %28 = load i32, ptr %6, align 4, !tbaa !31
  %29 = icmp ne i32 %28, 0
  br i1 %29, label %30, label %38

30:                                               ; preds = %27
  %31 = load ptr, ptr %9, align 8, !tbaa !36
  %32 = call i64 @gtk_tree_store_get_type() #12
  %33 = call ptr @g_type_check_instance_cast(ptr noundef %31, i64 noundef %32)
  %34 = load i32, ptr %7, align 4, !tbaa !31
  call void (ptr, ptr, ...) @gtk_tree_store_set(ptr noundef %33, ptr noundef %10, i32 noundef 4, i32 noundef %34, i32 noundef 5, i32 noundef 2, i32 noundef -1)
  %35 = load ptr, ptr %9, align 8, !tbaa !36
  %36 = call i64 @gtk_tree_model_get_type() #12
  %37 = call ptr @g_type_check_instance_cast(ptr noundef %35, i64 noundef %36)
  call void @_calculate_sel_on_tree(ptr noundef %37, ptr noundef %10)
  br label %43

38:                                               ; preds = %27
  %39 = load ptr, ptr %9, align 8, !tbaa !36
  %40 = call i64 @gtk_list_store_get_type() #12
  %41 = call ptr @g_type_check_instance_cast(ptr noundef %39, i64 noundef %40)
  %42 = load i32, ptr %7, align 4, !tbaa !31
  call void (ptr, ptr, ...) @gtk_list_store_set(ptr noundef %41, ptr noundef %10, i32 noundef 4, i32 noundef %42, i32 noundef 5, i32 noundef 2, i32 noundef -1)
  br label %43

43:                                               ; preds = %38, %30
  br label %44

44:                                               ; preds = %43, %22
  br label %45

45:                                               ; preds = %44, %3
  call void @llvm.lifetime.end.p0(i64 32, ptr %10) #11
  call void @llvm.lifetime.end.p0(i64 8, ptr %9) #11
  call void @llvm.lifetime.end.p0(i64 8, ptr %8) #11
  call void @llvm.lifetime.end.p0(i64 4, ptr %7) #11
  ret void
}