; Function Attrs: nounwind uwtable
define internal fastcc void @_update_attached_count(i32 noundef %0, ptr noundef %1, i32 noundef %2) unnamed_addr #1 {
  %4 = alloca %struct._GtkTreeIter, align 8
  %5 = tail call i32 @dt_tag_images_count(i32 noundef %0) #16
  %6 = tail call ptr @gtk_tree_view_get_model(ptr noundef %1) #16
  %7 = tail call i64 @gtk_tree_model_filter_get_type() #17
  %8 = tail call ptr @g_type_check_instance_cast(ptr noundef %6, i64 noundef %7) #16
  %9 = tail call ptr @gtk_tree_model_filter_get_model(ptr noundef %8) #16
  call void @llvm.lifetime.start.p0(i64 32, ptr nonnull %4) #16
  %10 = call i32 @gtk_tree_model_get_iter_first(ptr noundef %9, ptr noundef nonnull %4) #16
  %.not = icmp eq i32 %10, 0
  br i1 %.not, label %22, label %11

11:                                               ; preds = %3
  %12 = call fastcc i32 @_find_tag_iter_tagid(ptr noundef %9, ptr noundef %4, i32 noundef %0)
  %.not11 = icmp eq i32 %12, 0
  br i1 %.not11, label %22, label %13

13:                                               ; preds = %11
  %.not12 = icmp eq i32 %2, 0
  br i1 %.not12, label %19, label %14

14:                                               ; preds = %13
  %15 = tail call i64 @gtk_tree_store_get_type() #17
  %16 = call ptr @g_type_check_instance_cast(ptr noundef %9, i64 noundef %15) #16
  call void (ptr, ptr, ...) @gtk_tree_store_set(ptr noundef %16, ptr noundef nonnull %4, i32 noundef 4, i32 noundef %5, i32 noundef 5, i32 noundef 2, i32 noundef -1) #16
  %17 = tail call i64 @gtk_tree_model_get_type() #17
  %18 = call ptr @g_type_check_instance_cast(ptr noundef %9, i64 noundef %17) #16
  call fastcc void @_calculate_sel_on_tree(ptr noundef %18, ptr noundef %4)
  br label %22

19:                                               ; preds = %13
  %20 = tail call i64 @gtk_list_store_get_type() #17
  %21 = call ptr @g_type_check_instance_cast(ptr noundef %9, i64 noundef %20) #16
  call void (ptr, ptr, ...) @gtk_list_store_set(ptr noundef %21, ptr noundef nonnull %4, i32 noundef 4, i32 noundef %5, i32 noundef 5, i32 noundef 2, i32 noundef -1) #16
  br label %22

22:                                               ; preds = %11, %19, %14, %3
  call void @llvm.lifetime.end.p0(i64 32, ptr nonnull %4) #16
  ret void
}